; Function Attrs: mustprogress nofree norecurse nosync nounwind willreturn memory(argmem: write) uwtable
define hidden void @_ZN5osgeo4proj11FileManager27fillDefaultNetworkInterfaceEP6pj_ctx(ptr noundef writeonly captures(none) initializes((424, 456)) %0) local_unnamed_addr #19 align 2 {
  %2 = getelementptr inbounds nuw i8, ptr %0, i64 424
  store ptr @_ZN5osgeo4proj14CurlFileHandle4openEP6pj_ctxPKcymPvPmmPcS6_, ptr %2, align 8, !tbaa !191
  %3 = getelementptr inbounds nuw i8, ptr %0, i64 432
  store ptr @_ZN5osgeo4projL13pj_curl_closeEP6pj_ctxP19PROJ_NETWORK_HANDLEPv, ptr %3, align 8, !tbaa !192
  %4 = getelementptr inbounds nuw i8, ptr %0, i64 448
  store ptr @_ZN5osgeo4projL18pj_curl_read_rangeEP6pj_ctxP19PROJ_NETWORK_HANDLEymPvmPcS5_, ptr %4, align 8, !tbaa !206
  %5 = getelementptr inbounds nuw i8, ptr %0, i64 440
  store ptr @_ZN5osgeo4projL24pj_curl_get_header_valueEP6pj_ctxP19PROJ_NETWORK_HANDLEPKcPv, ptr %5, align 8, !tbaa !184
  ret void
}